target datalayout = "e-m:e-p270:32:32-p271:32:32-p272:64:64-i64:64-i128:128-f80:128-n8:16:32:64-S128"
target triple = "x86_64-unknown-linux-gnu"

%struct.ChardevCommon = type { ptr, i8, i8 }
%struct.ChardevSocket = type { ptr, i8, i8, ptr, ptr, ptr, i8, i8, i8, i8, i8, i8, i8, i8, i8, i8, i8, i8, i8, i64 }

@.str.10 = private unnamed_addr constant [8 x i8] c"logfile\00", align 1
@.str.11 = private unnamed_addr constant [10 x i8] c"logappend\00", align 1
@.str.15 = private unnamed_addr constant [5 x i8] c"addr\00", align 1
@.str.16 = private unnamed_addr constant [10 x i8] c"tls-creds\00", align 1
@.str.17 = private unnamed_addr constant [10 x i8] c"tls-authz\00", align 1
@.str.18 = private unnamed_addr constant [7 x i8] c"server\00", align 1
@.str.19 = private unnamed_addr constant [5 x i8] c"wait\00", align 1
@.str.20 = private unnamed_addr constant [8 x i8] c"nodelay\00", align 1
@.str.21 = private unnamed_addr constant [7 x i8] c"telnet\00", align 1
@.str.22 = private unnamed_addr constant [7 x i8] c"tn3270\00", align 1
@.str.23 = private unnamed_addr constant [10 x i8] c"websocket\00", align 1
@.str.24 = private unnamed_addr constant [10 x i8] c"reconnect\00", align 1

; Function Attrs: nounwind sspstrong uwtable
define dso_local zeroext i1 @visit_type_ChardevCommon_members(ptr noundef %v, ptr noundef %obj, ptr noundef %errp) #0 {
entry:
  %retval = alloca i1, align 1
  %v.addr = alloca ptr, align 8
  %obj.addr = alloca ptr, align 8
  %errp.addr = alloca ptr, align 8
  %has_logfile = alloca i8, align 1
  store ptr %v, ptr %v.addr, align 8
  store ptr %obj, ptr %obj.addr, align 8
  store ptr %errp, ptr %errp.addr, align 8
  %0 = load ptr, ptr %obj.addr, align 8
  %logfile = getelementptr inbounds %struct.ChardevCommon, ptr %0, i32 0, i32 0
  %1 = load ptr, ptr %logfile, align 8
  %tobool = icmp ne ptr %1, null
  %lnot = xor i1 %tobool, true
  %lnot1 = xor i1 %lnot, true
  %frombool = zext i1 %lnot1 to i8
  store i8 %frombool, ptr %has_logfile, align 1
  %2 = load ptr, ptr %v.addr, align 8
  %call = call zeroext i1 @visit_optional(ptr noundef %2, ptr noundef @.str.10, ptr noundef %has_logfile)
  br i1 %call, label %if.then, label %if.end5

if.then:                                          ; preds = %entry
  %3 = load ptr, ptr %v.addr, align 8
  %4 = load ptr, ptr %obj.addr, align 8
  %logfile2 = getelementptr inbounds %struct.ChardevCommon, ptr %4, i32 0, i32 0
  %5 = load ptr, ptr %errp.addr, align 8
  %call3 = call zeroext i1 @visit_type_str(ptr noundef %3, ptr noundef @.str.10, ptr noundef %logfile2, ptr noundef %5)
  br i1 %call3, label %if.end, label %if.then4

if.then4:                                         ; preds = %if.then
  store i1 false, ptr %retval, align 1
  br label %return

if.end:                                           ; preds = %if.then
  br label %if.end5

if.end5:                                          ; preds = %if.end, %entry
  %6 = load ptr, ptr %v.addr, align 8
  %7 = load ptr, ptr %obj.addr, align 8
  %has_logappend = getelementptr inbounds %struct.ChardevCommon, ptr %7, i32 0, i32 1
  %call6 = call zeroext i1 @visit_optional(ptr noundef %6, ptr noundef @.str.11, ptr noundef %has_logappend)
  br i1 %call6, label %if.then7, label %if.end11

if.then7:                                         ; preds = %if.end5
  %8 = load ptr, ptr %v.addr, align 8
  %9 = load ptr, ptr %obj.addr, align 8
  %logappend = getelementptr inbounds %struct.ChardevCommon, ptr %9, i32 0, i32 2
  %10 = load ptr, ptr %errp.addr, align 8
  %call8 = call zeroext i1 @visit_type_bool(ptr noundef %8, ptr noundef @.str.11, ptr noundef %logappend, ptr noundef %10)
  br i1 %call8, label %if.end10, label %if.then9

if.then9:                                         ; preds = %if.then7
  store i1 false, ptr %retval, align 1
  br label %return

if.end10:                                         ; preds = %if.then7
  br label %if.end11

if.end11:                                         ; preds = %if.end10, %if.end5
  store i1 true, ptr %retval, align 1
  br label %return

return:                                           ; preds = %if.end11, %if.then9, %if.then4
  %11 = load i1, ptr %retval, align 1
  ret i1 %11
}

; Function Attrs: nounwind sspstrong uwtable
define dso_local zeroext i1 @visit_type_ChardevSocket_members(ptr noundef %v, ptr noundef %obj, ptr noundef %errp) #0 {
entry:
  %retval = alloca i1, align 1
  %v.addr = alloca ptr, align 8
  %obj.addr = alloca ptr, align 8
  %errp.addr = alloca ptr, align 8
  %has_tls_creds = alloca i8, align 1
  %has_tls_authz = alloca i8, align 1
  store ptr %v, ptr %v.addr, align 8
  store ptr %obj, ptr %obj.addr, align 8
  store ptr %errp, ptr %errp.addr, align 8
  %0 = load ptr, ptr %obj.addr, align 8
  %tls_creds = getelementptr inbounds %struct.ChardevSocket, ptr %0, i32 0, i32 4
  %1 = load ptr, ptr %tls_creds, align 8
  %tobool = icmp ne ptr %1, null
  %lnot = xor i1 %tobool, true
  %lnot1 = xor i1 %lnot, true
  %frombool = zext i1 %lnot1 to i8
  store i8 %frombool, ptr %has_tls_creds, align 1
  %2 = load ptr, ptr %obj.addr, align 8
  %tls_authz = getelementptr inbounds %struct.ChardevSocket, ptr %2, i32 0, i32 5
  %3 = load ptr, ptr %tls_authz, align 8
  %tobool2 = icmp ne ptr %3, null
  %lnot3 = xor i1 %tobool2, true
  %lnot4 = xor i1 %lnot3, true
  %frombool5 = zext i1 %lnot4 to i8
  store i8 %frombool5, ptr %has_tls_authz, align 1
  %4 = load ptr, ptr %v.addr, align 8
  %5 = load ptr, ptr %obj.addr, align 8
  %6 = load ptr, ptr %errp.addr, align 8
  %call = call zeroext i1 @visit_type_ChardevCommon_members(ptr noundef %4, ptr noundef %5, ptr noundef %6)
  br i1 %call, label %if.end, label %if.then

if.then:                                          ; preds = %entry
  store i1 false, ptr %retval, align 1
  br label %return

if.end:                                           ; preds = %entry
  %7 = load ptr, ptr %v.addr, align 8
  %8 = load ptr, ptr %obj.addr, align 8
  %addr = getelementptr inbounds %struct.ChardevSocket, ptr %8, i32 0, i32 3
  %9 = load ptr, ptr %errp.addr, align 8
  %call6 = call zeroext i1 @visit_type_SocketAddressLegacy(ptr noundef %7, ptr noundef @.str.15, ptr noundef %addr, ptr noundef %9)
  br i1 %call6, label %if.end8, label %if.then7

if.then7:                                         ; preds = %if.end
  store i1 false, ptr %retval, align 1
  br label %return

if.end8:                                          ; preds = %if.end
  %10 = load ptr, ptr %v.addr, align 8
  %call9 = call zeroext i1 @visit_optional(ptr noundef %10, ptr noundef @.str.16, ptr noundef %has_tls_creds)
  br i1 %call9, label %if.then10, label %if.end15

if.then10:                                        ; preds = %if.end8
  %11 = load ptr, ptr %v.addr, align 8
  %12 = load ptr, ptr %obj.addr, align 8
  %tls_creds11 = getelementptr inbounds %struct.ChardevSocket, ptr %12, i32 0, i32 4
  %13 = load ptr, ptr %errp.addr, align 8
  %call12 = call zeroext i1 @visit_type_str(ptr noundef %11, ptr noundef @.str.16, ptr noundef %tls_creds11, ptr noundef %13)
  br i1 %call12, label %if.end14, label %if.then13

if.then13:                                        ; preds = %if.then10
  store i1 false, ptr %retval, align 1
  br label %return

if.end14:                                         ; preds = %if.then10
  br label %if.end15

if.end15:                                         ; preds = %if.end14, %if.end8
  %14 = load ptr, ptr %v.addr, align 8
  %call16 = call zeroext i1 @visit_optional(ptr noundef %14, ptr noundef @.str.17, ptr noundef %has_tls_authz)
  br i1 %call16, label %if.then17, label %if.end22

if.then17:                                        ; preds = %if.end15
  %15 = load ptr, ptr %v.addr, align 8
  %16 = load ptr, ptr %obj.addr, align 8
  %tls_authz18 = getelementptr inbounds %struct.ChardevSocket, ptr %16, i32 0, i32 5
  %17 = load ptr, ptr %errp.addr, align 8
  %call19 = call zeroext i1 @visit_type_str(ptr noundef %15, ptr noundef @.str.17, ptr noundef %tls_authz18, ptr noundef %17)
  br i1 %call19, label %if.end21, label %if.then20

if.then20:                                        ; preds = %if.then17
  store i1 false, ptr %retval, align 1
  br label %return

if.end21:                                         ; preds = %if.then17
  br label %if.end22

if.end22:                                         ; preds = %if.end21, %if.end15
  %18 = load ptr, ptr %v.addr, align 8
  %19 = load ptr, ptr %obj.addr, align 8
  %has_server = getelementptr inbounds %struct.ChardevSocket, ptr %19, i32 0, i32 6
  %call23 = call zeroext i1 @visit_optional(ptr noundef %18, ptr noundef @.str.18, ptr noundef %has_server)
  br i1 %call23, label %if.then24, label %if.end28

if.then24:                                        ; preds = %if.end22
  %20 = load ptr, ptr %v.addr, align 8
  %21 = load ptr, ptr %obj.addr, align 8
  %server = getelementptr inbounds %struct.ChardevSocket, ptr %21, i32 0, i32 7
  %22 = load ptr, ptr %errp.addr, align 8
  %call25 = call zeroext i1 @visit_type_bool(ptr noundef %20, ptr noundef @.str.18, ptr noundef %server, ptr noundef %22)
  br i1 %call25, label %if.end27, label %if.then26

if.then26:                                        ; preds = %if.then24
  store i1 false, ptr %retval, align 1
  br label %return

if.end27:                                         ; preds = %if.then24
  br label %if.end28

if.end28:                                         ; preds = %if.end27, %if.end22
  %23 = load ptr, ptr %v.addr, align 8
  %24 = load ptr, ptr %obj.addr, align 8
  %has_wait = getelementptr inbounds %struct.ChardevSocket, ptr %24, i32 0, i32 8
  %call29 = call zeroext i1 @visit_optional(ptr noundef %23, ptr noundef @.str.19, ptr noundef %has_wait)
  br i1 %call29, label %if.then30, label %if.end34

if.then30:                                        ; preds = %if.end28
  %25 = load ptr, ptr %v.addr, align 8
  %26 = load ptr, ptr %obj.addr, align 8
  %wait = getelementptr inbounds %struct.ChardevSocket, ptr %26, i32 0, i32 9
  %27 = load ptr, ptr %errp.addr, align 8
  %call31 = call zeroext i1 @visit_type_bool(ptr noundef %25, ptr noundef @.str.19, ptr noundef %wait, ptr noundef %27)
  br i1 %call31, label %if.end33, label %if.then32

if.then32:                                        ; preds = %if.then30
  store i1 false, ptr %retval, align 1
  br label %return

if.end33:                                         ; preds = %if.then30
  br label %if.end34

if.end34:                                         ; preds = %if.end33, %if.end28
  %28 = load ptr, ptr %v.addr, align 8
  %29 = load ptr, ptr %obj.addr, align 8
  %has_nodelay = getelementptr inbounds %struct.ChardevSocket, ptr %29, i32 0, i32 10
  %call35 = call zeroext i1 @visit_optional(ptr noundef %28, ptr noundef @.str.20, ptr noundef %has_nodelay)
  br i1 %call35, label %if.then36, label %if.end40

if.then36:                                        ; preds = %if.end34
  %30 = load ptr, ptr %v.addr, align 8
  %31 = load ptr, ptr %obj.addr, align 8
  %nodelay = getelementptr inbounds %struct.ChardevSocket, ptr %31, i32 0, i32 11
  %32 = load ptr, ptr %errp.addr, align 8
  %call37 = call zeroext i1 @visit_type_bool(ptr noundef %30, ptr noundef @.str.20, ptr noundef %nodelay, ptr noundef %32)
  br i1 %call37, label %if.end39, label %if.then38

if.then38:                                        ; preds = %if.then36
  store i1 false, ptr %retval, align 1
  br label %return

if.end39:                                         ; preds = %if.then36
  br label %if.end40

if.end40:                                         ; preds = %if.end39, %if.end34
  %33 = load ptr, ptr %v.addr, align 8
  %34 = load ptr, ptr %obj.addr, align 8
  %has_telnet = getelementptr inbounds %struct.ChardevSocket, ptr %34, i32 0, i32 12
  %call41 = call zeroext i1 @visit_optional(ptr noundef %33, ptr noundef @.str.21, ptr noundef %has_telnet)
  br i1 %call41, label %if.then42, label %if.end46

if.then42:                                        ; preds = %if.end40
  %35 = load ptr, ptr %v.addr, align 8
  %36 = load ptr, ptr %obj.addr, align 8
  %telnet = getelementptr inbounds %struct.ChardevSocket, ptr %36, i32 0, i32 13
  %37 = load ptr, ptr %errp.addr, align 8
  %call43 = call zeroext i1 @visit_type_bool(ptr noundef %35, ptr noundef @.str.21, ptr noundef %telnet, ptr noundef %37)
  br i1 %call43, label %if.end45, label %if.then44

if.then44:                                        ; preds = %if.then42
  store i1 false, ptr %retval, align 1
  br label %return

if.end45:                                         ; preds = %if.then42
  br label %if.end46

if.end46:                                         ; preds = %if.end45, %if.end40
  %38 = load ptr, ptr %v.addr, align 8
  %39 = load ptr, ptr %obj.addr, align 8
  %has_tn3270 = getelementptr inbounds %struct.ChardevSocket, ptr %39, i32 0, i32 14
  %call47 = call zeroext i1 @visit_optional(ptr noundef %38, ptr noundef @.str.22, ptr noundef %has_tn3270)
  br i1 %call47, label %if.then48, label %if.end52

if.then48:                                        ; preds = %if.end46
  %40 = load ptr, ptr %v.addr, align 8
  %41 = load ptr, ptr %obj.addr, align 8
  %tn3270 = getelementptr inbounds %struct.ChardevSocket, ptr %41, i32 0, i32 15
  %42 = load ptr, ptr %errp.addr, align 8
  %call49 = call zeroext i1 @visit_type_bool(ptr noundef %40, ptr noundef @.str.22, ptr noundef %tn3270, ptr noundef %42)
  br i1 %call49, label %if.end51, label %if.then50

if.then50:                                        ; preds = %if.then48
  store i1 false, ptr %retval, align 1
  br label %return

if.end51:                                         ; preds = %if.then48
  br label %if.end52

if.end52:                                         ; preds = %if.end51, %if.end46
  %43 = load ptr, ptr %v.addr, align 8
  %44 = load ptr, ptr %obj.addr, align 8
  %has_websocket = getelementptr inbounds %struct.ChardevSocket, ptr %44, i32 0, i32 16
  %call53 = call zeroext i1 @visit_optional(ptr noundef %43, ptr noundef @.str.23, ptr noundef %has_websocket)
  br i1 %call53, label %if.then54, label %if.end58

if.then54:                                        ; preds = %if.end52
  %45 = load ptr, ptr %v.addr, align 8
  %46 = load ptr, ptr %obj.addr, align 8
  %websocket = getelementptr inbounds %struct.ChardevSocket, ptr %46, i32 0, i32 17
  %47 = load ptr, ptr %errp.addr, align 8
  %call55 = call zeroext i1 @visit_type_bool(ptr noundef %45, ptr noundef @.str.23, ptr noundef %websocket, ptr noundef %47)
  br i1 %call55, label %if.end57, label %if.then56

if.then56:                                        ; preds = %if.then54
  store i1 false, ptr %retval, align 1
  br label %return

if.end57:                                         ; preds = %if.then54
  br label %if.end58

if.end58:                                         ; preds = %if.end57, %if.end52
  %48 = load ptr, ptr %v.addr, align 8
  %49 = load ptr, ptr %obj.addr, align 8
  %has_reconnect = getelementptr inbounds %struct.ChardevSocket, ptr %49, i32 0, i32 18
  %call59 = call zeroext i1 @visit_optional(ptr noundef %48, ptr noundef @.str.24, ptr noundef %has_reconnect)
  br i1 %call59, label %if.then60, label %if.end64

if.then60:                                        ; preds = %if.end58
  %50 = load ptr, ptr %v.addr, align 8
  %51 = load ptr, ptr %obj.addr, align 8
  %reconnect = getelementptr inbounds %struct.ChardevSocket, ptr %51, i32 0, i32 19
  %52 = load ptr, ptr %errp.addr, align 8
  %call61 = call zeroext i1 @visit_type_int(ptr noundef %50, ptr noundef @.str.24, ptr noundef %reconnect, ptr noundef %52)
  br i1 %call61, label %if.end63, label %if.then62

if.then62:                                        ; preds = %if.then60
  store i1 false, ptr %retval, align 1
  br label %return

if.end63:                                         ; preds = %if.then60
  br label %if.end64

if.end64:                                         ; preds = %if.end63, %if.end58
  store i1 true, ptr %retval, align 1
  br label %return

return:                                           ; preds = %if.end64, %if.then62, %if.then56, %if.then50, %if.then44, %if.then38, %if.then32, %if.then26, %if.then20, %if.then13, %if.then7, %if.then
  %53 = load i1, ptr %retval, align 1
  ret i1 %53
}