; Function Attrs: nounwind sspstrong uwtable
define dso_local noundef zeroext i1 @visit_type_ChardevSocket_members(ptr noundef %v, ptr noundef %obj, ptr noundef %errp) local_unnamed_addr #0 {
entry:
  %has_logfile.i = alloca i8, align 1
  %has_tls_creds = alloca i8, align 1
  %has_tls_authz = alloca i8, align 1
  %tls_creds = getelementptr inbounds nuw i8, ptr %obj, i64 24
  %0 = load ptr, ptr %tls_creds, align 8
  %tobool = icmp ne ptr %0, null
  %frombool = zext i1 %tobool to i8
  store i8 %frombool, ptr %has_tls_creds, align 1
  %tls_authz = getelementptr inbounds nuw i8, ptr %obj, i64 32
  %1 = load ptr, ptr %tls_authz, align 8
  %tobool2 = icmp ne ptr %1, null
  %frombool5 = zext i1 %tobool2 to i8
  store i8 %frombool5, ptr %has_tls_authz, align 1
  call void @llvm.lifetime.start.p0(i64 1, ptr nonnull %has_logfile.i)
  %2 = load ptr, ptr %obj, align 8
  %tobool.i = icmp ne ptr %2, null
  %frombool.i = zext i1 %tobool.i to i8
  store i8 %frombool.i, ptr %has_logfile.i, align 1
  %call.i = call zeroext i1 @visit_optional(ptr noundef %v, ptr noundef nonnull @.str.10, ptr noundef nonnull %has_logfile.i) #5
  br i1 %call.i, label %if.then.i, label %if.end5.i

if.then.i:                                        ; preds = %entry
  %call3.i = call zeroext i1 @visit_type_str(ptr noundef %v, ptr noundef nonnull @.str.10, ptr noundef nonnull %obj, ptr noundef %errp) #5
  br i1 %call3.i, label %if.end5.i, label %visit_type_ChardevCommon_members.exit.thread

if.end5.i:                                        ; preds = %if.then.i, %entry
  %has_logappend.i = getelementptr inbounds nuw i8, ptr %obj, i64 8
  %call6.i = call zeroext i1 @visit_optional(ptr noundef %v, ptr noundef nonnull @.str.11, ptr noundef nonnull %has_logappend.i) #5
  br i1 %call6.i, label %if.then7.i, label %if.end

if.then7.i:                                       ; preds = %if.end5.i
  %logappend.i = getelementptr inbounds nuw i8, ptr %obj, i64 9
  %call8.i = call zeroext i1 @visit_type_bool(ptr noundef %v, ptr noundef nonnull @.str.11, ptr noundef nonnull %logappend.i, ptr noundef %errp) #5
  br i1 %call8.i, label %if.end, label %visit_type_ChardevCommon_members.exit.thread

visit_type_ChardevCommon_members.exit.thread:     ; preds = %if.then.i, %if.then7.i
  call void @llvm.lifetime.end.p0(i64 1, ptr nonnull %has_logfile.i)
  br label %return

if.end:                                           ; preds = %if.then7.i, %if.end5.i
  call void @llvm.lifetime.end.p0(i64 1, ptr nonnull %has_logfile.i)
  %addr = getelementptr inbounds nuw i8, ptr %obj, i64 16
  %call6 = call zeroext i1 @visit_type_SocketAddressLegacy(ptr noundef %v, ptr noundef nonnull @.str.15, ptr noundef nonnull %addr, ptr noundef %errp) #5
  br i1 %call6, label %if.end8, label %return

if.end8:                                          ; preds = %if.end
  %call9 = call zeroext i1 @visit_optional(ptr noundef %v, ptr noundef nonnull @.str.16, ptr noundef nonnull %has_tls_creds) #5
  br i1 %call9, label %if.then10, label %if.end15

if.then10:                                        ; preds = %if.end8
  %call12 = call zeroext i1 @visit_type_str(ptr noundef %v, ptr noundef nonnull @.str.16, ptr noundef nonnull %tls_creds, ptr noundef %errp) #5
  br i1 %call12, label %if.end15, label %return

if.end15:                                         ; preds = %if.then10, %if.end8
  %call16 = call zeroext i1 @visit_optional(ptr noundef %v, ptr noundef nonnull @.str.17, ptr noundef nonnull %has_tls_authz) #5
  br i1 %call16, label %if.then17, label %if.end22

if.then17:                                        ; preds = %if.end15
  %call19 = call zeroext i1 @visit_type_str(ptr noundef %v, ptr noundef nonnull @.str.17, ptr noundef nonnull %tls_authz, ptr noundef %errp) #5
  br i1 %call19, label %if.end22, label %return

if.end22:                                         ; preds = %if.then17, %if.end15
  %has_server = getelementptr inbounds nuw i8, ptr %obj, i64 40
  %call23 = call zeroext i1 @visit_optional(ptr noundef %v, ptr noundef nonnull @.str.18, ptr noundef nonnull %has_server) #5
  br i1 %call23, label %if.then24, label %if.end28

if.then24:                                        ; preds = %if.end22
  %server = getelementptr inbounds nuw i8, ptr %obj, i64 41
  %call25 = call zeroext i1 @visit_type_bool(ptr noundef %v, ptr noundef nonnull @.str.18, ptr noundef nonnull %server, ptr noundef %errp) #5
  br i1 %call25, label %if.end28, label %return

if.end28:                                         ; preds = %if.then24, %if.end22
  %has_wait = getelementptr inbounds nuw i8, ptr %obj, i64 42
  %call29 = call zeroext i1 @visit_optional(ptr noundef %v, ptr noundef nonnull @.str.19, ptr noundef nonnull %has_wait) #5
  br i1 %call29, label %if.then30, label %if.end34

if.then30:                                        ; preds = %if.end28
  %wait = getelementptr inbounds nuw i8, ptr %obj, i64 43
  %call31 = call zeroext i1 @visit_type_bool(ptr noundef %v, ptr noundef nonnull @.str.19, ptr noundef nonnull %wait, ptr noundef %errp) #5
  br i1 %call31, label %if.end34, label %return

if.end34:                                         ; preds = %if.then30, %if.end28
  %has_nodelay = getelementptr inbounds nuw i8, ptr %obj, i64 44
  %call35 = call zeroext i1 @visit_optional(ptr noundef %v, ptr noundef nonnull @.str.20, ptr noundef nonnull %has_nodelay) #5
  br i1 %call35, label %if.then36, label %if.end40

if.then36:                                        ; preds = %if.end34
  %nodelay = getelementptr inbounds nuw i8, ptr %obj, i64 45
  %call37 = call zeroext i1 @visit_type_bool(ptr noundef %v, ptr noundef nonnull @.str.20, ptr noundef nonnull %nodelay, ptr noundef %errp) #5
  br i1 %call37, label %if.end40, label %return

if.end40:                                         ; preds = %if.then36, %if.end34
  %has_telnet = getelementptr inbounds nuw i8, ptr %obj, i64 46
  %call41 = call zeroext i1 @visit_optional(ptr noundef %v, ptr noundef nonnull @.str.21, ptr noundef nonnull %has_telnet) #5
  br i1 %call41, label %if.then42, label %if.end46

if.then42:                                        ; preds = %if.end40
  %telnet = getelementptr inbounds nuw i8, ptr %obj, i64 47
  %call43 = call zeroext i1 @visit_type_bool(ptr noundef %v, ptr noundef nonnull @.str.21, ptr noundef nonnull %telnet, ptr noundef %errp) #5
  br i1 %call43, label %if.end46, label %return

if.end46:                                         ; preds = %if.then42, %if.end40
  %has_tn3270 = getelementptr inbounds nuw i8, ptr %obj, i64 48
  %call47 = call zeroext i1 @visit_optional(ptr noundef %v, ptr noundef nonnull @.str.22, ptr noundef nonnull %has_tn3270) #5
  br i1 %call47, label %if.then48, label %if.end52

if.then48:                                        ; preds = %if.end46
  %tn3270 = getelementptr inbounds nuw i8, ptr %obj, i64 49
  %call49 = call zeroext i1 @visit_type_bool(ptr noundef %v, ptr noundef nonnull @.str.22, ptr noundef nonnull %tn3270, ptr noundef %errp) #5
  br i1 %call49, label %if.end52, label %return

if.end52:                                         ; preds = %if.then48, %if.end46
  %has_websocket = getelementptr inbounds nuw i8, ptr %obj, i64 50
  %call53 = call zeroext i1 @visit_optional(ptr noundef %v, ptr noundef nonnull @.str.23, ptr noundef nonnull %has_websocket) #5
  br i1 %call53, label %if.then54, label %if.end58

if.then54:                                        ; preds = %if.end52
  %websocket = getelementptr inbounds nuw i8, ptr %obj, i64 51
  %call55 = call zeroext i1 @visit_type_bool(ptr noundef %v, ptr noundef nonnull @.str.23, ptr noundef nonnull %websocket, ptr noundef %errp) #5
  br i1 %call55, label %if.end58, label %return

if.end58:                                         ; preds = %if.then54, %if.end52
  %has_reconnect = getelementptr inbounds nuw i8, ptr %obj, i64 52
  %call59 = call zeroext i1 @visit_optional(ptr noundef %v, ptr noundef nonnull @.str.24, ptr noundef nonnull %has_reconnect) #5
  br i1 %call59, label %if.then60, label %if.end64

if.then60:                                        ; preds = %if.end58
  %reconnect = getelementptr inbounds nuw i8, ptr %obj, i64 56
  %call61 = call zeroext i1 @visit_type_int(ptr noundef %v, ptr noundef nonnull @.str.24, ptr noundef nonnull %reconnect, ptr noundef %errp) #5
  br i1 %call61, label %if.end64, label %return

if.end64:                                         ; preds = %if.then60, %if.end58
  br label %return

return:                                           ; preds = %visit_type_ChardevCommon_members.exit.thread, %if.then60, %if.then54, %if.then48, %if.then42, %if.then36, %if.then30, %if.then24, %if.then17, %if.then10, %if.end, %if.end64
  %retval.0 = phi i1 [ true, %if.end64 ], [ false, %if.end ], [ false, %if.then10 ], [ false, %if.then17 ], [ false, %if.then24 ], [ false, %if.then30 ], [ false, %if.then36 ], [ false, %if.then42 ], [ false, %if.then48 ], [ false, %if.then54 ], [ false, %if.then60 ], [ false, %visit_type_ChardevCommon_members.exit.thread ]
  ret i1 %retval.0
}